target datalayout = "e-m:e-p270:32:32-p271:32:32-p272:64:64-i64:64-i128:128-f80:128-n8:16:32:64-S128"
target triple = "x86_64-pc-linux-gnu"

%"class.std::__cxx11::basic_string" = type { %"struct.std::__cxx11::basic_string<char>::_Alloc_hider", i64, %union.anon }
%"struct.std::__cxx11::basic_string<char>::_Alloc_hider" = type { ptr }
%union.anon = type { i64, [8 x i8] }
%"class.std::allocator" = type { i8 }

@.str.19 = private unnamed_addr constant [14 x i8] c"CONFIGURATION\00", align 1
@.str.20 = private unnamed_addr constant [48 x i8] c"Set configuration variable for custom commands.\00", align 1
@.str.61 = private unnamed_addr constant [50 x i8] c"basic_string: construction from null is not valid\00", align 1

; Function Attrs: mustprogress nounwind uwtable
define linkonce_odr dso_local noundef i64 @_ZNSt11char_traitsIcE6lengthEPKc(ptr noundef %0) #5 comdat align 2 {
  %2 = alloca ptr, align 8
  store ptr %0, ptr %2, align 8
  %3 = load ptr, ptr %2, align 8
  %4 = call i64 @strlen(ptr noundef %3) #3
  ret i64 %4
}

; Function Attrs: mustprogress nounwind uwtable
define linkonce_odr dso_local void @_ZNSt7__cxx1112basic_stringIcSt11char_traitsIcESaIcEE12_Alloc_hiderD2Ev(ptr noundef nonnull align 8 dereferenceable(8) %0) unnamed_addr #5 comdat align 2 {
  %2 = alloca ptr, align 8
  store ptr %0, ptr %2, align 8
  %3 = load ptr, ptr %2, align 8
  call void @_ZNSaIcED2Ev(ptr noundef nonnull align 1 dereferenceable(1) %3) #3
  ret void
}

; Function Attrs: mustprogress uwtable
define linkonce_odr dso_local void @_ZNSt7__cxx1112basic_stringIcSt11char_traitsIcESaIcEEC2IS3_EEPKcRKS3_(ptr noundef nonnull align 8 dereferenceable(32) %0, ptr noundef %1, ptr noundef nonnull align 1 dereferenceable(1) %2) unnamed_addr #4 comdat align 2 personality ptr @__gxx_personality_v0 {
  %4 = alloca ptr, align 8
  %5 = alloca ptr, align 8
  %6 = alloca ptr, align 8
  %7 = alloca ptr, align 8
  %8 = alloca i32, align 4
  %9 = alloca ptr, align 8
  store ptr %0, ptr %4, align 8
  store ptr %1, ptr %5, align 8
  store ptr %2, ptr %6, align 8
  %10 = load ptr, ptr %4, align 8
  %11 = getelementptr inbounds %"class.std::__cxx11::basic_string", ptr %10, i32 0, i32 0
  %12 = call noundef ptr @_ZNSt7__cxx1112basic_stringIcSt11char_traitsIcESaIcEE13_M_local_dataEv(ptr noundef nonnull align 8 dereferenceable(32) %10)
  %13 = load ptr, ptr %6, align 8
  call void @_ZNSt7__cxx1112basic_stringIcSt11char_traitsIcESaIcEE12_Alloc_hiderC1EPcRKS3_(ptr noundef nonnull align 8 dereferenceable(8) %11, ptr noundef %12, ptr noundef nonnull align 1 dereferenceable(1) %13)
  %14 = load ptr, ptr %5, align 8
  %15 = icmp eq ptr %14, null
  br i1 %15, label %16, label %22

16:                                               ; preds = %3
  invoke void @_ZSt19__throw_logic_errorPKc(ptr noundef @.str.61) #15
          to label %17 unwind label %18

17:                                               ; preds = %16
  unreachable

18:                                               ; preds = %22, %16
  %19 = landingpad { ptr, i32 }
          cleanup
  %20 = extractvalue { ptr, i32 } %19, 0
  store ptr %20, ptr %7, align 8
  %21 = extractvalue { ptr, i32 } %19, 1
  store i32 %21, ptr %8, align 4
  call void @_ZNSt7__cxx1112basic_stringIcSt11char_traitsIcESaIcEE12_Alloc_hiderD2Ev(ptr noundef nonnull align 8 dereferenceable(8) %11) #3
  br label %30

22:                                               ; preds = %3
  %23 = load ptr, ptr %5, align 8
  %24 = load ptr, ptr %5, align 8
  %25 = call noundef i64 @_ZNSt11char_traitsIcE6lengthEPKc(ptr noundef %24)
  %26 = getelementptr inbounds i8, ptr %23, i64 %25
  store ptr %26, ptr %9, align 8
  %27 = load ptr, ptr %5, align 8
  %28 = load ptr, ptr %9, align 8
  invoke void @_ZNSt7__cxx1112basic_stringIcSt11char_traitsIcESaIcEE12_M_constructIPKcEEvT_S8_St20forward_iterator_tag(ptr noundef nonnull align 8 dereferenceable(32) %10, ptr noundef %27, ptr noundef %28)
          to label %29 unwind label %18

29:                                               ; preds = %22
  ret void

30:                                               ; preds = %18
  %31 = load ptr, ptr %7, align 8
  %32 = load i32, ptr %8, align 4
  %33 = insertvalue { ptr, i32 } poison, ptr %31, 0
  %34 = insertvalue { ptr, i32 } %33, i32 %32, 1
  resume { ptr, i32 } %34
}

; Function Attrs: mustprogress uwtable
define dso_local void @_ZN21cmLocalNinjaGenerator31WriteNinjaConfigurationVariableERSoRKNSt7__cxx1112basic_stringIcSt11char_traitsIcESaIcEEE(ptr noundef nonnull align 8 dereferenceable(952) %0, ptr noundef nonnull align 8 dereferenceable(8) %1, ptr noundef nonnull align 8 dereferenceable(32) %2) #4 align 2 personality ptr @__gxx_personality_v0 {
  %4 = alloca ptr, align 8
  %5 = alloca ptr, align 8
  %6 = alloca ptr, align 8
  %7 = alloca %"class.std::__cxx11::basic_string", align 8
  %8 = alloca %"class.std::allocator", align 1
  %9 = alloca ptr, align 8
  %10 = alloca i32, align 4
  %11 = alloca %"class.std::__cxx11::basic_string", align 8
  %12 = alloca %"class.std::allocator", align 1
  store ptr %0, ptr %4, align 8
  store ptr %1, ptr %5, align 8
  store ptr %2, ptr %6, align 8
  %13 = load ptr, ptr %5, align 8
  call void @_ZNSaIcEC1Ev(ptr noundef nonnull align 1 dereferenceable(1) %8) #3
  invoke void @_ZNSt7__cxx1112basic_stringIcSt11char_traitsIcESaIcEEC2IS3_EEPKcRKS3_(ptr noundef nonnull align 8 dereferenceable(32) %7, ptr noundef @.str.19, ptr noundef nonnull align 1 dereferenceable(1) %8)
          to label %14 unwind label %18

14:                                               ; preds = %3
  %15 = load ptr, ptr %6, align 8
  call void @_ZNSaIcEC1Ev(ptr noundef nonnull align 1 dereferenceable(1) %12) #3
  invoke void @_ZNSt7__cxx1112basic_stringIcSt11char_traitsIcESaIcEEC2IS3_EEPKcRKS3_(ptr noundef nonnull align 8 dereferenceable(32) %11, ptr noundef @.str.20, ptr noundef nonnull align 1 dereferenceable(1) %12)
          to label %16 unwind label %22

16:                                               ; preds = %14
  invoke void @_ZN22cmGlobalNinjaGenerator13WriteVariableERSoRKNSt7__cxx1112basic_stringIcSt11char_traitsIcESaIcEEES8_S8_i(ptr noundef nonnull align 8 dereferenceable(8) %13, ptr noundef nonnull align 8 dereferenceable(32) %7, ptr noundef nonnull align 8 dereferenceable(32) %15, ptr noundef nonnull align 8 dereferenceable(32) %11, i32 noundef 0)
          to label %17 unwind label %26

17:                                               ; preds = %16
  call void @_ZNSt7__cxx1112basic_stringIcSt11char_traitsIcESaIcEED1Ev(ptr noundef nonnull align 8 dereferenceable(32) %11) #3
  call void @_ZNSaIcED1Ev(ptr noundef nonnull align 1 dereferenceable(1) %12) #3
  call void @_ZNSt7__cxx1112basic_stringIcSt11char_traitsIcESaIcEED1Ev(ptr noundef nonnull align 8 dereferenceable(32) %7) #3
  call void @_ZNSaIcED1Ev(ptr noundef nonnull align 1 dereferenceable(1) %8) #3
  ret void

18:                                               ; preds = %3
  %19 = landingpad { ptr, i32 }
          cleanup
  %20 = extractvalue { ptr, i32 } %19, 0
  store ptr %20, ptr %9, align 8
  %21 = extractvalue { ptr, i32 } %19, 1
  store i32 %21, ptr %10, align 4
  br label %31

22:                                               ; preds = %14
  %23 = landingpad { ptr, i32 }
          cleanup
  %24 = extractvalue { ptr, i32 } %23, 0
  store ptr %24, ptr %9, align 8
  %25 = extractvalue { ptr, i32 } %23, 1
  store i32 %25, ptr %10, align 4
  br label %30

26:                                               ; preds = %16
  %27 = landingpad { ptr, i32 }
          cleanup
  %28 = extractvalue { ptr, i32 } %27, 0
  store ptr %28, ptr %9, align 8
  %29 = extractvalue { ptr, i32 } %27, 1
  store i32 %29, ptr %10, align 4
  call void @_ZNSt7__cxx1112basic_stringIcSt11char_traitsIcESaIcEED1Ev(ptr noundef nonnull align 8 dereferenceable(32) %11) #3
  br label %30

30:                                               ; preds = %26, %22
  call void @_ZNSaIcED1Ev(ptr noundef nonnull align 1 dereferenceable(1) %12) #3
  call void @_ZNSt7__cxx1112basic_stringIcSt11char_traitsIcESaIcEED1Ev(ptr noundef nonnull align 8 dereferenceable(32) %7) #3
  br label %31

31:                                               ; preds = %30, %18
  call void @_ZNSaIcED1Ev(ptr noundef nonnull align 1 dereferenceable(1) %8) #3
  br label %32

32:                                               ; preds = %31
  %33 = load ptr, ptr %9, align 8
  %34 = load i32, ptr %10, align 4
  %35 = insertvalue { ptr, i32 } poison, ptr %33, 0
  %36 = insertvalue { ptr, i32 } %35, i32 %34, 1
  resume { ptr, i32 } %36
}